; Function Attrs: mustprogress nounwind uwtable
define hidden void @_ZN5zxing6qrcode22AlignmentPatternFinderD2Ev(ptr nocapture noundef nonnull align 8 dereferenceable(52) %0) unnamed_addr #5 align 2 personality ptr @__gxx_personality_v0 {
  store ptr getelementptr inbounds inrange(-16, 16) (i8, ptr @_ZTVN5zxing6qrcode22AlignmentPatternFinderE, i64 16), ptr %0, align 8
  %2 = getelementptr inbounds i8, ptr %0, i64 24
  %3 = load ptr, ptr %2, align 8
  %4 = getelementptr inbounds i8, ptr %3, i64 8
  %5 = load ptr, ptr %4, align 8
  %6 = load ptr, ptr %3, align 8
  %7 = ptrtoint ptr %5 to i64
  %8 = ptrtoint ptr %6 to i64
  %9 = sub i64 %7, %8
  %10 = lshr exact i64 %9, 3
  %11 = trunc i64 %10 to i32
  %12 = icmp sgt i32 %11, 0
  br i1 %12, label %.lr.ph, label %._crit_edge

.lr.ph:                                           ; preds = %1, %_ZN5zxing7Counted7releaseEv.exit
  %indvars.iv = phi i64 [ %indvars.iv.next, %_ZN5zxing7Counted7releaseEv.exit ], [ 0, %1 ]
  %13 = phi ptr [ %30, %_ZN5zxing7Counted7releaseEv.exit ], [ %6, %1 ]
  %14 = getelementptr inbounds ptr, ptr %13, i64 %indvars.iv
  %15 = load ptr, ptr %14, align 8
  %16 = getelementptr inbounds i8, ptr %15, i64 8
  %17 = load i32, ptr %16, align 8
  %18 = add i32 %17, -1
  store i32 %18, ptr %16, align 8
  %19 = icmp eq i32 %18, 0
  br i1 %19, label %20, label %_ZN5zxing7Counted7releaseEv.exit

20:                                               ; preds = %.lr.ph
  store i32 -559026175, ptr %16, align 8
  %21 = load ptr, ptr %15, align 8
  %22 = getelementptr inbounds i8, ptr %21, i64 8
  %23 = load ptr, ptr %22, align 8
  tail call void %23(ptr noundef nonnull align 8 dereferenceable(12) %15) #12
  br label %_ZN5zxing7Counted7releaseEv.exit

_ZN5zxing7Counted7releaseEv.exit:                 ; preds = %.lr.ph, %20
  %24 = load ptr, ptr %2, align 8
  %25 = load ptr, ptr %24, align 8
  %26 = getelementptr inbounds ptr, ptr %25, i64 %indvars.iv
  store ptr null, ptr %26, align 8
  %indvars.iv.next = add nuw nsw i64 %indvars.iv, 1
  %27 = load ptr, ptr %2, align 8
  %28 = getelementptr inbounds i8, ptr %27, i64 8
  %29 = load ptr, ptr %28, align 8
  %30 = load ptr, ptr %27, align 8
  %31 = ptrtoint ptr %29 to i64
  %32 = ptrtoint ptr %30 to i64
  %33 = sub i64 %31, %32
  %sext = shl i64 %33, 29
  %34 = ashr i64 %sext, 32
  %35 = icmp slt i64 %indvars.iv.next, %34
  br i1 %35, label %.lr.ph, label %._crit_edge, !llvm.loop !14

._crit_edge:                                      ; preds = %_ZN5zxing7Counted7releaseEv.exit, %1
  %.lcssa5 = phi ptr [ %3, %1 ], [ %27, %_ZN5zxing7Counted7releaseEv.exit ]
  %.lcssa = phi ptr [ %6, %1 ], [ %30, %_ZN5zxing7Counted7releaseEv.exit ]
  %.not.i.i.i = icmp eq ptr %.lcssa, null
  br i1 %.not.i.i.i, label %37, label %36

36:                                               ; preds = %._crit_edge
  tail call void @_ZdlPv(ptr noundef nonnull %.lcssa) #14
  br label %37

37:                                               ; preds = %36, %._crit_edge
  tail call void @_ZdlPv(ptr noundef nonnull %.lcssa5) #14
  %38 = getelementptr inbounds i8, ptr %0, i64 16
  %39 = load ptr, ptr %38, align 8
  %.not.i = icmp eq ptr %39, null
  br i1 %.not.i, label %_ZN5zxing3RefINS_9BitMatrixEED2Ev.exit, label %40

40:                                               ; preds = %37
  %41 = getelementptr inbounds i8, ptr %39, i64 8
  %42 = load i32, ptr %41, align 8
  %43 = add i32 %42, -1
  store i32 %43, ptr %41, align 8
  %44 = icmp eq i32 %43, 0
  br i1 %44, label %45, label %_ZN5zxing3RefINS_9BitMatrixEED2Ev.exit

45:                                               ; preds = %40
  store i32 -559026175, ptr %41, align 8
  %46 = load ptr, ptr %39, align 8
  %47 = getelementptr inbounds i8, ptr %46, i64 8
  %48 = load ptr, ptr %47, align 8
  tail call void %48(ptr noundef nonnull align 8 dereferenceable(12) %39) #12
  br label %_ZN5zxing3RefINS_9BitMatrixEED2Ev.exit

_ZN5zxing3RefINS_9BitMatrixEED2Ev.exit:           ; preds = %37, %40, %45
  ret void
}